; Function Attrs: mustprogress nounwind uwtable
define dso_local void @_ZN4llvm10BasicBlock24instructionsWithoutDebugEb(ptr dead_on_unwind noalias writable sret(%"class.llvm::iterator_range.59") align 8 %0, ptr noundef nonnull align 8 dereferenceable(80) %1, i1 noundef zeroext %2) local_unnamed_addr #0 align 2 {
_ZNSt8functionIFbRN4llvm11InstructionEEEC2ERKS4_.exit:
  %3 = alloca %"class.std::function.64", align 8
  %4 = zext i1 %2 to i8
  call void @llvm.memset.p0.i64(ptr noundef nonnull align 8 dereferenceable(32) %3, i8 0, i64 16, i1 false)
  %5 = getelementptr inbounds nuw i8, ptr %3, i64 24
  %6 = getelementptr inbounds nuw i8, ptr %3, i64 16
  store i8 %4, ptr %3, align 8
  store ptr @"_ZNSt17_Function_handlerIFbRN4llvm11InstructionEEZNS0_10BasicBlock24instructionsWithoutDebugEbE3$_0E9_M_invokeERKSt9_Any_dataS2_", ptr %5, align 8
  store ptr @"_ZNSt17_Function_handlerIFbRN4llvm11InstructionEEZNS0_10BasicBlock24instructionsWithoutDebugEbE3$_0E10_M_managerERSt9_Any_dataRKS7_St18_Manager_operation", ptr %6, align 8
  call void @_ZN4llvm17make_filter_rangeIRNS_10BasicBlockESt8functionIFbRNS_11InstructionEEEEENS_14iterator_rangeINS_20filter_iterator_implIDTcl9adl_beginclsr3stdE7declvalIRT_EEEET0_NS_6detail15fwd_or_bidi_tagISC_E4typeEEEEEOSA_SD_(ptr dead_on_unwind writable sret(%"class.llvm::iterator_range.59") align 8 %0, ptr noundef nonnull align 8 dereferenceable(80) %1, ptr noundef nonnull %3)
  %7 = load ptr, ptr %6, align 8
  %.not.i.i = icmp eq ptr %7, null
  br i1 %.not.i.i, label %_ZNSt8functionIFbRN4llvm11InstructionEEED2Ev.exit2, label %8

8:                                                ; preds = %_ZNSt8functionIFbRN4llvm11InstructionEEEC2ERKS4_.exit
  %9 = call noundef zeroext i1 %7(ptr noundef nonnull align 8 dereferenceable(32) %3, ptr noundef nonnull align 8 dereferenceable(32) %3, i32 noundef 3) #24
  br label %_ZNSt8functionIFbRN4llvm11InstructionEEED2Ev.exit2

_ZNSt8functionIFbRN4llvm11InstructionEEED2Ev.exit2: ; preds = %_ZNSt8functionIFbRN4llvm11InstructionEEEC2ERKS4_.exit, %8
  ret void
}